target datalayout = "e-m:e-p270:32:32-p271:32:32-p272:64:64-i64:64-i128:128-f80:128-n8:16:32:64-S128"
target triple = "x86_64-pc-linux-gnu"

%struct.StringInfoData = type { ptr, i32, i32, i32 }
%struct.nameData = type { [64 x i8] }
%struct.FormData_pg_class = type { i32, %struct.nameData, i32, i32, i32, i32, i32, i32, i32, i32, float, i32, i32, i8, i8, i8, i8, i16, i16, i8, i8, i8, i8, i8, i8, i8, i8, i32, i32, i32 }
%struct.HeapTupleData = type { i32, %struct.ItemPointerData, i32, ptr }
%struct.ItemPointerData = type { %struct.BlockIdData, i16 }
%struct.BlockIdData = type { i16, i16 }
%struct.HeapTupleHeaderData = type { %union.anon, %struct.ItemPointerData, i16, i16, i8, [0 x i8] }
%union.anon = type { %struct.HeapTupleFields }
%struct.HeapTupleFields = type { i32, i32, %union.anon.1 }
%union.anon.1 = type { i32 }

@.str.2 = private unnamed_addr constant [12 x i8] c"ruleutils.c\00", align 1
@.str.27 = private unnamed_addr constant [4 x i8] c"%s.\00", align 1
@.str.63 = private unnamed_addr constant [36 x i8] c"cache lookup failed for relation %u\00", align 1
@.str.419 = private unnamed_addr constant [37 x i8] c"cache lookup failed for namespace %u\00", align 1
@__func__.generate_qualified_relation_name = private unnamed_addr constant [33 x i8] c"generate_qualified_relation_name\00", align 1

; Function Attrs: nounwind uwtable
define dso_local ptr @quote_qualified_identifier(ptr noundef %0, ptr noundef %1) #0 {
  %3 = alloca ptr, align 8
  %4 = alloca ptr, align 8
  %5 = alloca %struct.StringInfoData, align 8
  store ptr %0, ptr %3, align 8
  store ptr %1, ptr %4, align 8
  call void @llvm.lifetime.start.p0(i64 24, ptr %5) #10
  call void @initStringInfo(ptr noundef %5)
  %6 = load ptr, ptr %3, align 8
  %7 = icmp ne ptr %6, null
  br i1 %7, label %8, label %11

8:                                                ; preds = %2
  %9 = load ptr, ptr %3, align 8
  %10 = call ptr @quote_identifier(ptr noundef %9)
  call void (ptr, ptr, ...) @appendStringInfo(ptr noundef %5, ptr noundef @.str.27, ptr noundef %10)
  br label %11

11:                                               ; preds = %8, %2
  %12 = load ptr, ptr %4, align 8
  %13 = call ptr @quote_identifier(ptr noundef %12)
  call void @appendStringInfoString(ptr noundef %5, ptr noundef %13)
  %14 = getelementptr inbounds nuw %struct.StringInfoData, ptr %5, i32 0, i32 0
  %15 = load ptr, ptr %14, align 8
  call void @llvm.lifetime.end.p0(i64 24, ptr %5) #10
  ret ptr %15
}

; Function Attrs: inlinehint nounwind uwtable
define internal ptr @GETSTRUCT(ptr noundef %0) #2 {
  %2 = alloca ptr, align 8
  store ptr %0, ptr %2, align 8
  %3 = load ptr, ptr %2, align 8
  %4 = getelementptr inbounds nuw %struct.HeapTupleData, ptr %3, i32 0, i32 3
  %5 = load ptr, ptr %4, align 8
  %6 = load ptr, ptr %2, align 8
  %7 = getelementptr inbounds nuw %struct.HeapTupleData, ptr %6, i32 0, i32 3
  %8 = load ptr, ptr %7, align 8
  %9 = getelementptr inbounds nuw %struct.HeapTupleHeaderData, ptr %8, i32 0, i32 4
  %10 = load i8, ptr %9, align 2
  %11 = zext i8 %10 to i32
  %12 = sext i32 %11 to i64
  %13 = getelementptr inbounds i8, ptr %5, i64 %12
  ret ptr %13
}

; Function Attrs: inlinehint nounwind uwtable
define internal i64 @ObjectIdGetDatum(i32 noundef %0) #2 {
  %2 = alloca i32, align 4
  store i32 %0, ptr %2, align 4
  %3 = load i32, ptr %2, align 4
  %4 = zext i32 %3 to i64
  ret i64 %4
}

; Function Attrs: nounwind uwtable
define internal ptr @generate_qualified_relation_name(i32 noundef %0) #0 {
  %2 = alloca i32, align 4
  %3 = alloca ptr, align 8
  %4 = alloca ptr, align 8
  %5 = alloca ptr, align 8
  %6 = alloca ptr, align 8
  %7 = alloca ptr, align 8
  store i32 %0, ptr %2, align 4
  call void @llvm.lifetime.start.p0(i64 8, ptr %3) #10
  call void @llvm.lifetime.start.p0(i64 8, ptr %4) #10
  call void @llvm.lifetime.start.p0(i64 8, ptr %5) #10
  call void @llvm.lifetime.start.p0(i64 8, ptr %6) #10
  call void @llvm.lifetime.start.p0(i64 8, ptr %7) #10
  %8 = load i32, ptr %2, align 4
  %9 = call i64 @ObjectIdGetDatum(i32 noundef %8)
  %10 = call ptr @SearchSysCache1(i32 noundef 57, i64 noundef %9)
  store ptr %10, ptr %3, align 8
  %11 = load ptr, ptr %3, align 8
  %12 = icmp ne ptr %11, null
  br i1 %12, label %25, label %13

13:                                               ; preds = %1
  br label %14

14:                                               ; preds = %13
  br i1 true, label %15, label %17

15:                                               ; preds = %14
  %16 = call zeroext i1 @errstart_cold(i32 noundef 21, ptr noundef null) #11
  br i1 %16, label %19, label %22

17:                                               ; preds = %14
  %18 = call zeroext i1 @errstart(i32 noundef 21, ptr noundef null)
  br i1 %18, label %19, label %22

19:                                               ; preds = %17, %15
  %20 = load i32, ptr %2, align 4
  %21 = call i32 (ptr, ...) @errmsg_internal(ptr noundef @.str.63, i32 noundef %20)
  call void @errfinish(ptr noundef @.str.2, i32 noundef 13134, ptr noundef @__func__.generate_qualified_relation_name)
  br label %22

22:                                               ; preds = %19, %17, %15
  unreachable

23:                                               ; No predecessors!
  br label %24

24:                                               ; preds = %23
  br label %25

25:                                               ; preds = %24, %1
  %26 = load ptr, ptr %3, align 8
  %27 = call ptr @GETSTRUCT(ptr noundef %26)
  store ptr %27, ptr %4, align 8
  %28 = load ptr, ptr %4, align 8
  %29 = getelementptr inbounds nuw %struct.FormData_pg_class, ptr %28, i32 0, i32 1
  %30 = getelementptr inbounds nuw %struct.nameData, ptr %29, i32 0, i32 0
  %31 = getelementptr inbounds [64 x i8], ptr %30, i64 0, i64 0
  store ptr %31, ptr %5, align 8
  %32 = load ptr, ptr %4, align 8
  %33 = getelementptr inbounds nuw %struct.FormData_pg_class, ptr %32, i32 0, i32 2
  %34 = load i32, ptr %33, align 4
  %35 = call ptr @get_namespace_name_or_temp(i32 noundef %34)
  store ptr %35, ptr %6, align 8
  %36 = load ptr, ptr %6, align 8
  %37 = icmp ne ptr %36, null
  br i1 %37, label %52, label %38

38:                                               ; preds = %25
  br label %39

39:                                               ; preds = %38
  br i1 true, label %40, label %42

40:                                               ; preds = %39
  %41 = call zeroext i1 @errstart_cold(i32 noundef 21, ptr noundef null) #11
  br i1 %41, label %44, label %49

42:                                               ; preds = %39
  %43 = call zeroext i1 @errstart(i32 noundef 21, ptr noundef null)
  br i1 %43, label %44, label %49

44:                                               ; preds = %42, %40
  %45 = load ptr, ptr %4, align 8
  %46 = getelementptr inbounds nuw %struct.FormData_pg_class, ptr %45, i32 0, i32 2
  %47 = load i32, ptr %46, align 4
  %48 = call i32 (ptr, ...) @errmsg_internal(ptr noundef @.str.419, i32 noundef %47)
  call void @errfinish(ptr noundef @.str.2, i32 noundef 13141, ptr noundef @__func__.generate_qualified_relation_name)
  br label %49

49:                                               ; preds = %44, %42, %40
  unreachable

50:                                               ; No predecessors!
  br label %51

51:                                               ; preds = %50
  br label %52

52:                                               ; preds = %51, %25
  %53 = load ptr, ptr %6, align 8
  %54 = load ptr, ptr %5, align 8
  %55 = call ptr @quote_qualified_identifier(ptr noundef %53, ptr noundef %54)
  store ptr %55, ptr %7, align 8
  %56 = load ptr, ptr %3, align 8
  call void @ReleaseSysCache(ptr noundef %56)
  %57 = load ptr, ptr %7, align 8
  call void @llvm.lifetime.end.p0(i64 8, ptr %7) #10
  call void @llvm.lifetime.end.p0(i64 8, ptr %6) #10
  call void @llvm.lifetime.end.p0(i64 8, ptr %5) #10
  call void @llvm.lifetime.end.p0(i64 8, ptr %4) #10
  call void @llvm.lifetime.end.p0(i64 8, ptr %3) #10
  ret ptr %57
}