; Function Attrs: nounwind uwtable
define internal fastcc ptr @generate_qualified_relation_name(i32 noundef %0) unnamed_addr #0 {
  %2 = alloca %struct.StringInfoData, align 8
  %3 = zext i32 %0 to i64
  %4 = tail call ptr @SearchSysCache1(i32 noundef 57, i64 noundef %3) #11
  %.not = icmp eq ptr %4, null
  br i1 %.not, label %5, label %8

5:                                                ; preds = %1
  %6 = tail call zeroext i1 @errstart_cold(i32 noundef 21, ptr noundef null) #12
  tail call void @llvm.assume(i1 %6)
  %7 = tail call i32 (ptr, ...) @errmsg_internal(ptr noundef nonnull @.str.63, i32 noundef %0) #11
  tail call void @errfinish(ptr noundef nonnull @.str.2, i32 noundef 13134, ptr noundef nonnull @__func__.generate_qualified_relation_name) #11
  unreachable

8:                                                ; preds = %1
  %9 = getelementptr i8, ptr %4, i64 16
  %.val = load ptr, ptr %9, align 8
  %10 = getelementptr inbounds nuw i8, ptr %.val, i64 22
  %11 = load i8, ptr %10, align 2
  %12 = zext i8 %11 to i64
  %13 = getelementptr inbounds nuw i8, ptr %.val, i64 %12
  %14 = getelementptr inbounds nuw i8, ptr %13, i64 68
  %15 = load i32, ptr %14, align 4
  %16 = tail call ptr @get_namespace_name_or_temp(i32 noundef %15) #11
  %.not12 = icmp eq ptr %16, null
  br i1 %.not12, label %17, label %quote_qualified_identifier.exit

17:                                               ; preds = %8
  %18 = tail call zeroext i1 @errstart_cold(i32 noundef 21, ptr noundef null) #12
  tail call void @llvm.assume(i1 %18)
  %19 = load i32, ptr %14, align 4
  %20 = tail call i32 (ptr, ...) @errmsg_internal(ptr noundef nonnull @.str.419, i32 noundef %19) #11
  tail call void @errfinish(ptr noundef nonnull @.str.2, i32 noundef 13141, ptr noundef nonnull @__func__.generate_qualified_relation_name) #11
  unreachable

quote_qualified_identifier.exit:                  ; preds = %8
  %21 = getelementptr inbounds nuw i8, ptr %13, i64 4
  call void @llvm.lifetime.start.p0(i64 24, ptr nonnull %2) #11
  call void @initStringInfo(ptr noundef nonnull %2) #11
  %22 = call ptr @quote_identifier(ptr noundef nonnull %16)
  call void (ptr, ptr, ...) @appendStringInfo(ptr noundef nonnull %2, ptr noundef nonnull @.str.27, ptr noundef %22) #11
  %23 = call ptr @quote_identifier(ptr noundef nonnull %21)
  call void @appendStringInfoString(ptr noundef nonnull %2, ptr noundef %23) #11
  %24 = load ptr, ptr %2, align 8
  call void @llvm.lifetime.end.p0(i64 24, ptr nonnull %2) #11
  call void @ReleaseSysCache(ptr noundef nonnull %4) #11
  ret ptr %24
}